; Function Attrs: nounwind uwtable
define ptr @l___private_Lake_Config_LeanConfig_0__Lake_reprBuildType____x40_Lake_Config_LeanConfig___hyg_19_(i8 noundef zeroext %0, ptr noundef %1) local_unnamed_addr #1 {
  %3 = ptrtoint ptr %1 to i64
  %4 = and i64 %3, 1
  %.not48 = icmp eq i64 %4, 0
  switch i8 %0, label %17 [
    i8 0, label %5
    i8 1, label %9
    i8 2, label %13
  ]

5:                                                ; preds = %2
  br i1 %.not48, label %lean_nat_le.exit, label %6, !prof !15

6:                                                ; preds = %5
  %.not50 = icmp ult ptr %1, inttoptr (i64 2049 to ptr)
  br i1 %.not50, label %21, label %8

lean_nat_le.exit:                                 ; preds = %5
  %7 = tail call zeroext i1 @lean_nat_big_le(ptr noundef nonnull inttoptr (i64 2049 to ptr), ptr noundef %1) #8
  br i1 %7, label %8, label %21

8:                                                ; preds = %6, %lean_nat_le.exit
  br label %21

9:                                                ; preds = %2
  br i1 %.not48, label %lean_nat_le.exit39, label %10, !prof !15

10:                                               ; preds = %9
  %.not49 = icmp ult ptr %1, inttoptr (i64 2049 to ptr)
  br i1 %.not49, label %21, label %12

lean_nat_le.exit39:                               ; preds = %9
  %11 = tail call zeroext i1 @lean_nat_big_le(ptr noundef nonnull inttoptr (i64 2049 to ptr), ptr noundef %1) #8
  br i1 %11, label %12, label %21

12:                                               ; preds = %10, %lean_nat_le.exit39
  br label %21

13:                                               ; preds = %2
  br i1 %.not48, label %lean_nat_le.exit42, label %14, !prof !15

14:                                               ; preds = %13
  %.not = icmp ult ptr %1, inttoptr (i64 2049 to ptr)
  br i1 %.not, label %21, label %16

lean_nat_le.exit42:                               ; preds = %13
  %15 = tail call zeroext i1 @lean_nat_big_le(ptr noundef nonnull inttoptr (i64 2049 to ptr), ptr noundef %1) #8
  br i1 %15, label %16, label %21

16:                                               ; preds = %14, %lean_nat_le.exit42
  br label %21

17:                                               ; preds = %2
  br i1 %.not48, label %lean_nat_le.exit45, label %18, !prof !15

18:                                               ; preds = %17
  %.not51 = icmp ult ptr %1, inttoptr (i64 2049 to ptr)
  br i1 %.not51, label %21, label %20

lean_nat_le.exit45:                               ; preds = %17
  %19 = tail call zeroext i1 @lean_nat_big_le(ptr noundef nonnull inttoptr (i64 2049 to ptr), ptr noundef %1) #8
  br i1 %19, label %20, label %21

20:                                               ; preds = %18, %lean_nat_le.exit45
  br label %21

21:                                               ; preds = %lean_nat_le.exit45, %18, %lean_nat_le.exit42, %14, %lean_nat_le.exit39, %10, %lean_nat_le.exit, %6, %20, %16, %12, %8
  %l___private_Lake_Config_LeanConfig_0__Lake_reprBuildType____x40_Lake_Config_LeanConfig___hyg_19____closed__24.sink = phi ptr [ @l___private_Lake_Config_LeanConfig_0__Lake_reprBuildType____x40_Lake_Config_LeanConfig___hyg_19____closed__26, %20 ], [ @l___private_Lake_Config_LeanConfig_0__Lake_reprBuildType____x40_Lake_Config_LeanConfig___hyg_19____closed__20, %16 ], [ @l___private_Lake_Config_LeanConfig_0__Lake_reprBuildType____x40_Lake_Config_LeanConfig___hyg_19____closed__14, %12 ], [ @l___private_Lake_Config_LeanConfig_0__Lake_reprBuildType____x40_Lake_Config_LeanConfig___hyg_19____closed__8, %8 ], [ @l___private_Lake_Config_LeanConfig_0__Lake_reprBuildType____x40_Lake_Config_LeanConfig___hyg_19____closed__5, %6 ], [ @l___private_Lake_Config_LeanConfig_0__Lake_reprBuildType____x40_Lake_Config_LeanConfig___hyg_19____closed__5, %lean_nat_le.exit ], [ @l___private_Lake_Config_LeanConfig_0__Lake_reprBuildType____x40_Lake_Config_LeanConfig___hyg_19____closed__12, %10 ], [ @l___private_Lake_Config_LeanConfig_0__Lake_reprBuildType____x40_Lake_Config_LeanConfig___hyg_19____closed__12, %lean_nat_le.exit39 ], [ @l___private_Lake_Config_LeanConfig_0__Lake_reprBuildType____x40_Lake_Config_LeanConfig___hyg_19____closed__18, %14 ], [ @l___private_Lake_Config_LeanConfig_0__Lake_reprBuildType____x40_Lake_Config_LeanConfig___hyg_19____closed__18, %lean_nat_le.exit42 ], [ @l___private_Lake_Config_LeanConfig_0__Lake_reprBuildType____x40_Lake_Config_LeanConfig___hyg_19____closed__24, %18 ], [ @l___private_Lake_Config_LeanConfig_0__Lake_reprBuildType____x40_Lake_Config_LeanConfig___hyg_19____closed__24, %lean_nat_le.exit45 ]
  %22 = load ptr, ptr %l___private_Lake_Config_LeanConfig_0__Lake_reprBuildType____x40_Lake_Config_LeanConfig___hyg_19____closed__24.sink, align 8, !tbaa !10
  %23 = tail call ptr @l_Repr_addAppParen(ptr noundef %22, ptr noundef %1) #8
  ret ptr %23
}